(dp0
S'hirosue'
p1
(lp2
S'81dc9bdb52d04dc20036dbd8313ed055'
p3
aF1484617707.628
asS'zheng'
p4
(lp5
S'81dc9bdb52d04dc20036dbd8313ed055'
p6
aF1484617754.124
asS'ryoko'
p7
(lp8
S'81dc9bdb52d04dc20036dbd8313ed055'
p9
aF1484617688.684
asS'chandler'
p10
(lp11
S'81dc9bdb52d04dc20036dbd8313ed055'
p12
aF1484617736.22
as.